target datalayout = "e-m:e-p270:32:32-p271:32:32-p272:64:64-i64:64-i128:128-f80:128-n8:16:32:64-S128"
target triple = "x86_64-pc-linux-gnu"

%struct.expert_field = type { i32, i32 }
%struct.gsm_sms_udh_fields_t = type { i16, i16, i16, i16, i16 }

@hf_gsm_sms_ud_multiple_messages_msg_id = internal global i32 0, align 4
@hf_gsm_sms_ud_multiple_messages_msg_parts = internal global i32 0, align 4
@hf_gsm_sms_ud_multiple_messages_msg_part = internal global i32 0, align 4
@ei_gsm_sms_unexpected_data_length = internal global %struct.expert_field zeroinitializer, align 4

; Function Attrs: null_pointer_is_valid sspstrong uwtable
define internal void @dis_iei_csm8(ptr noundef %0, ptr noundef %1, ptr noundef %2, i32 noundef %3, i8 noundef zeroext %4, ptr noundef %5) #0 {
  %7 = alloca ptr, align 8
  %8 = alloca ptr, align 8
  %9 = alloca ptr, align 8
  %10 = alloca i32, align 4
  %11 = alloca i8, align 1
  %12 = alloca ptr, align 8
  %13 = alloca i8, align 1
  %14 = alloca i32, align 4
  store ptr %0, ptr %7, align 8
  store ptr %1, ptr %8, align 8
  store ptr %2, ptr %9, align 8
  store i32 %3, ptr %10, align 4
  store i8 %4, ptr %11, align 1
  store ptr %5, ptr %12, align 8
  call void @llvm.lifetime.start.p0(i64 1, ptr %13) #13
  %15 = load i8, ptr %11, align 1
  %16 = zext i8 %15 to i32
  %17 = icmp ne i32 %16, 3
  br i1 %17, label %18, label %26

18:                                               ; preds = %6
  %19 = load ptr, ptr %9, align 8
  %20 = load ptr, ptr %8, align 8
  %21 = load ptr, ptr %7, align 8
  %22 = load i32, ptr %10, align 4
  %23 = load i8, ptr %11, align 1
  %24 = zext i8 %23 to i32
  %25 = call ptr @proto_tree_add_expert(ptr noundef %19, ptr noundef %20, ptr noundef @ei_gsm_sms_unexpected_data_length, ptr noundef %21, i32 noundef %22, i32 noundef %24)
  store i32 1, ptr %14, align 4
  br label %73

26:                                               ; preds = %6
  %27 = load ptr, ptr %7, align 8
  %28 = load i32, ptr %10, align 4
  %29 = call zeroext i8 @tvb_get_uint8(ptr noundef %27, i32 noundef %28)
  store i8 %29, ptr %13, align 1
  %30 = load i8, ptr %13, align 1
  %31 = zext i8 %30 to i16
  %32 = load ptr, ptr %12, align 8
  %33 = getelementptr inbounds nuw %struct.gsm_sms_udh_fields_t, ptr %32, i32 0, i32 0
  store i16 %31, ptr %33, align 2
  %34 = load ptr, ptr %9, align 8
  %35 = load i32, ptr @hf_gsm_sms_ud_multiple_messages_msg_id, align 4
  %36 = load ptr, ptr %7, align 8
  %37 = load i32, ptr %10, align 4
  %38 = load i8, ptr %13, align 1
  %39 = zext i8 %38 to i32
  %40 = call ptr @proto_tree_add_uint(ptr noundef %34, i32 noundef %35, ptr noundef %36, i32 noundef %37, i32 noundef 1, i32 noundef %39)
  %41 = load i32, ptr %10, align 4
  %42 = add i32 %41, 1
  store i32 %42, ptr %10, align 4
  %43 = load ptr, ptr %7, align 8
  %44 = load i32, ptr %10, align 4
  %45 = call zeroext i8 @tvb_get_uint8(ptr noundef %43, i32 noundef %44)
  store i8 %45, ptr %13, align 1
  %46 = load i8, ptr %13, align 1
  %47 = zext i8 %46 to i16
  %48 = load ptr, ptr %12, align 8
  %49 = getelementptr inbounds nuw %struct.gsm_sms_udh_fields_t, ptr %48, i32 0, i32 1
  store i16 %47, ptr %49, align 2
  %50 = load ptr, ptr %9, align 8
  %51 = load i32, ptr @hf_gsm_sms_ud_multiple_messages_msg_parts, align 4
  %52 = load ptr, ptr %7, align 8
  %53 = load i32, ptr %10, align 4
  %54 = load i8, ptr %13, align 1
  %55 = zext i8 %54 to i32
  %56 = call ptr @proto_tree_add_uint(ptr noundef %50, i32 noundef %51, ptr noundef %52, i32 noundef %53, i32 noundef 1, i32 noundef %55)
  %57 = load i32, ptr %10, align 4
  %58 = add i32 %57, 1
  store i32 %58, ptr %10, align 4
  %59 = load ptr, ptr %7, align 8
  %60 = load i32, ptr %10, align 4
  %61 = call zeroext i8 @tvb_get_uint8(ptr noundef %59, i32 noundef %60)
  store i8 %61, ptr %13, align 1
  %62 = load i8, ptr %13, align 1
  %63 = zext i8 %62 to i16
  %64 = load ptr, ptr %12, align 8
  %65 = getelementptr inbounds nuw %struct.gsm_sms_udh_fields_t, ptr %64, i32 0, i32 2
  store i16 %63, ptr %65, align 2
  %66 = load ptr, ptr %9, align 8
  %67 = load i32, ptr @hf_gsm_sms_ud_multiple_messages_msg_part, align 4
  %68 = load ptr, ptr %7, align 8
  %69 = load i32, ptr %10, align 4
  %70 = load i8, ptr %13, align 1
  %71 = zext i8 %70 to i32
  %72 = call ptr @proto_tree_add_uint(ptr noundef %66, i32 noundef %67, ptr noundef %68, i32 noundef %69, i32 noundef 1, i32 noundef %71)
  store i32 0, ptr %14, align 4
  br label %73

73:                                               ; preds = %26, %18
  call void @llvm.lifetime.end.p0(i64 1, ptr %13) #13
  %74 = load i32, ptr %14, align 4
  switch i32 %74, label %76 [
    i32 0, label %75
    i32 1, label %75
  ]

75:                                               ; preds = %73, %73
  ret void

76:                                               ; preds = %73
  unreachable
}