; Function Attrs: null_pointer_is_valid sspstrong uwtable
define internal void @dis_iei_csm8(ptr noundef %0, ptr noundef %1, ptr noundef %2, i32 noundef %3, i8 noundef zeroext %4, ptr noundef writeonly captures(none) %5) unnamed_addr #0 {
  %.not = icmp eq i8 %4, 3
  br i1 %.not, label %10, label %7

7:                                                ; preds = %6
  %8 = zext i8 %4 to i32
  %9 = tail call ptr @proto_tree_add_expert(ptr noundef %2, ptr noundef %1, ptr noundef nonnull @ei_gsm_sms_unexpected_data_length, ptr noundef %0, i32 noundef %3, i32 noundef %8)
  br label %30

10:                                               ; preds = %6
  %11 = tail call zeroext i8 @tvb_get_uint8(ptr noundef %0, i32 noundef %3)
  %12 = zext i8 %11 to i16
  store i16 %12, ptr %5, align 2
  %13 = load i32, ptr @hf_gsm_sms_ud_multiple_messages_msg_id, align 4
  %14 = zext i8 %11 to i32
  %15 = tail call ptr @proto_tree_add_uint(ptr noundef %2, i32 noundef %13, ptr noundef %0, i32 noundef %3, i32 noundef 1, i32 noundef %14)
  %16 = add i32 %3, 1
  %17 = tail call zeroext i8 @tvb_get_uint8(ptr noundef %0, i32 noundef %16)
  %18 = zext i8 %17 to i16
  %19 = getelementptr inbounds nuw i8, ptr %5, i64 2
  store i16 %18, ptr %19, align 2
  %20 = load i32, ptr @hf_gsm_sms_ud_multiple_messages_msg_parts, align 4
  %21 = zext i8 %17 to i32
  %22 = tail call ptr @proto_tree_add_uint(ptr noundef %2, i32 noundef %20, ptr noundef %0, i32 noundef %16, i32 noundef 1, i32 noundef %21)
  %23 = add i32 %3, 2
  %24 = tail call zeroext i8 @tvb_get_uint8(ptr noundef %0, i32 noundef %23)
  %25 = zext i8 %24 to i16
  %26 = getelementptr inbounds nuw i8, ptr %5, i64 4
  store i16 %25, ptr %26, align 2
  %27 = load i32, ptr @hf_gsm_sms_ud_multiple_messages_msg_part, align 4
  %28 = zext i8 %24 to i32
  %29 = tail call ptr @proto_tree_add_uint(ptr noundef %2, i32 noundef %27, ptr noundef %0, i32 noundef %23, i32 noundef 1, i32 noundef %28)
  br label %30

30:                                               ; preds = %10, %7
  ret void
}